(iapp.helpers.qualityPredictor
qualPred
p0
(dp1
S'featureNames'
p2
(lp3
S'length'
p4
aS'nextlinks'
p5
aS'nimages'
p6
aS'nlinks'
p7
asS'clf'
p8
ccopy_reg
_reconstructor
p9
(csklearn.linear_model.logistic
LogisticRegression
p10
c__builtin__
object
p11
Ntp12
Rp13
(dp14
S'loss'
p15
S'lr'
p16
sS'C'
p17
F0.35
sS'intercept_'
p18
cnumpy.core.multiarray
_reconstruct
p19
(cnumpy
ndarray
p20
(I0
tp21
S'b'
p22
tp23
Rp24
(I1
(I1
tp25
cnumpy
dtype
p26
(S'f8'
p27
I0
I1
tp28
Rp29
(I3
S'<'
p30
NNNI-1
I-1
I0
tp31
bI00
S']Y\x87\x1b\x08\xce\x0b\xc0'
p32
tp33
bsS'verbose'
p34
I0
sS'dual'
p35
I00
sS'fit_intercept'
p36
I01
sS'class_weight_'
p37
g19
(g20
(I0
tp38
g22
tp39
Rp40
(I1
(I2
tp41
g29
I00
S'\x00\x00\x00\x00\x00\x00\xf0?\x00\x00\x00\x00\x00\x00\xf0?'
p42
tp43
bsS'penalty'
p44
S'l2'
p45
sS'multi_class'
p46
S'ovr'
p47
sS'random_state'
p48
NsS'raw_coef_'
p49
g19
(g20
(I0
tp50
g22
tp51
Rp52
(I1
(I1
I5
tp53
g29
I01
S'\xf3P\x97\x1a\x0bV\xeb?#*\x1c/\xe6\t\xe2\xbf\xeaI\xa7\xc3\xc1\x14\xce?\rH\xe0{\xab\xb4\xbf\xbf]Y\x87\x1b\x08\xce\x0b\xc0'
p54
tp55
bsS'_enc'
p56
g9
(csklearn.preprocessing.label
LabelEncoder
p57
g11
Ntp58
Rp59
(dp60
S'classes_'
p61
g19
(g20
(I0
tp62
g22
tp63
Rp64
(I1
(I2
tp65
g26
(S'b1'
p66
I0
I1
tp67
Rp68
(I3
S'|'
p69
NNNI-1
I-1
I0
tp70
bI00
S'\x00\x01'
p71
tp72
bsbsS'tol'
p73
F0.0001
sS'coef_'
p74
g19
(g20
(I0
tp75
g22
tp76
Rp77
(I1
(I1
I4
tp78
g29
I01
S'\xf3P\x97\x1a\x0bV\xeb?#*\x1c/\xe6\t\xe2\xbf\xeaI\xa7\xc3\xc1\x14\xce?\rH\xe0{\xab\xb4\xbf\xbf'
p79
tp80
bsS'class_weight'
p81
NsS'intercept_scaling'
p82
I1
sbsS'logres'
p83
g9
(csklearn.pipeline
Pipeline
p84
g11
Ntp85
Rp86
(dp87
S'steps'
p88
(lp89
(S'scaler'
p90
g9
(csklearn.preprocessing.data
StandardScaler
p91
g11
Ntp92
Rp93
(dp94
S'std_'
p95
g19
(g20
(I0
tp96
g22
tp97
Rp98
(I1
(I4
tp99
g29
I00
S'\xf6\xc3\xa9>\xc0\xca\xd5@\xe2J*yARA@W\xf9\xea\xca\x05\xea#@icE\x073\xd4d@'
p100
tp101
bsS'copy'
p102
I01
sS'with_mean'
p103
I01
sS'with_std'
p104
I01
sS'mean_'
p105
g19
(g20
(I0
tp106
g22
tp107
Rp108
(I1
(I4
tp109
g29
I00
S'\x12+\x05g\xe3\xa8\xc7@\xa0Pz\xdb\x05\xb9)@c\xf7\xfe\x84\xd2\xdb\x16@B\xc0^\x0bI\xb4X@'
p110
tp111
bsbtp112
a(g8
g13
tp113
asS'named_steps'
p114
(dp115
g8
g13
sg90
g93
ssbsS'testPropor'
p116
F0.3333333333333333
sb.